; Function Attrs: mustprogress uwtable
define void @_ZNK9BoolValue16fillToXMLElementER11QDomElement(ptr nocapture noundef nonnull readonly align 8 dereferenceable(9) %0, ptr noundef nonnull align 8 dereferenceable(8) %1) unnamed_addr #2 align 2 personality ptr @__gxx_personality_v0 {
  %3 = alloca %class.QString, align 8
  %4 = alloca %class.QString, align 8
  %5 = getelementptr inbounds i8, ptr %0, i64 8
  %6 = load i8, ptr %5, align 8
  %7 = and i8 %6, 1
  %.not = icmp eq i8 %7, 0
  %8 = select i1 %.not, ptr @.str.5, ptr @.str.4
  %9 = select i1 %.not, i32 5, i32 4
  %10 = tail call noundef ptr @_ZN7QString16fromAscii_helperEPKci(ptr noundef nonnull %8, i32 noundef %9)
  store ptr %10, ptr %3, align 8
  %11 = invoke noundef ptr @_ZN7QString16fromAscii_helperEPKci(ptr noundef nonnull @.str.6, i32 noundef 5)
          to label %12 unwind label %22

12:                                               ; preds = %2
  store ptr %11, ptr %4, align 8
  invoke void @_ZN11QDomElement12setAttributeERK7QStringS2_(ptr noundef nonnull align 8 dereferenceable(8) %1, ptr noundef nonnull align 8 dereferenceable(8) %4, ptr noundef nonnull align 8 dereferenceable(8) %3)
          to label %13 unwind label %24

13:                                               ; preds = %12
  %14 = load ptr, ptr %4, align 8
  %15 = load atomic i32, ptr %14 monotonic, align 4
  switch i32 %15, label %_ZN9QtPrivate8RefCount5derefEv.exit.i [
    i32 0, label %_ZN9QtPrivate8RefCount5derefEv.exit.thread2.i
    i32 -1, label %_ZN7QStringD2Ev.exit
  ]

_ZN9QtPrivate8RefCount5derefEv.exit.i:            ; preds = %13
  %16 = atomicrmw sub ptr %14, i32 1 seq_cst, align 4
  %.not.i = icmp eq i32 %16, 1
  br i1 %.not.i, label %_ZN9QtPrivate8RefCount5derefEv.exit._ZN9QtPrivate8RefCount5derefEv.exit.thread2_crit_edge.i, label %_ZN7QStringD2Ev.exit

_ZN9QtPrivate8RefCount5derefEv.exit._ZN9QtPrivate8RefCount5derefEv.exit.thread2_crit_edge.i: ; preds = %_ZN9QtPrivate8RefCount5derefEv.exit.i
  %.pre.i = load ptr, ptr %4, align 8
  br label %_ZN9QtPrivate8RefCount5derefEv.exit.thread2.i

_ZN9QtPrivate8RefCount5derefEv.exit.thread2.i:    ; preds = %_ZN9QtPrivate8RefCount5derefEv.exit._ZN9QtPrivate8RefCount5derefEv.exit.thread2_crit_edge.i, %13
  %17 = phi ptr [ %.pre.i, %_ZN9QtPrivate8RefCount5derefEv.exit._ZN9QtPrivate8RefCount5derefEv.exit.thread2_crit_edge.i ], [ %14, %13 ]
  call void @_ZN10QArrayData10deallocateEPS_mm(ptr noundef %17, i64 noundef 2, i64 noundef 8) #14
  br label %_ZN7QStringD2Ev.exit

_ZN7QStringD2Ev.exit:                             ; preds = %13, %_ZN9QtPrivate8RefCount5derefEv.exit.i, %_ZN9QtPrivate8RefCount5derefEv.exit.thread2.i
  %18 = load ptr, ptr %3, align 8
  %19 = load atomic i32, ptr %18 monotonic, align 4
  switch i32 %19, label %_ZN9QtPrivate8RefCount5derefEv.exit.i6 [
    i32 0, label %_ZN9QtPrivate8RefCount5derefEv.exit.thread2.i5
    i32 -1, label %_ZN7QStringD2Ev.exit10
  ]

_ZN9QtPrivate8RefCount5derefEv.exit.i6:           ; preds = %_ZN7QStringD2Ev.exit
  %20 = atomicrmw sub ptr %18, i32 1 seq_cst, align 4
  %.not.i7 = icmp eq i32 %20, 1
  br i1 %.not.i7, label %_ZN9QtPrivate8RefCount5derefEv.exit._ZN9QtPrivate8RefCount5derefEv.exit.thread2_crit_edge.i8, label %_ZN7QStringD2Ev.exit10

_ZN9QtPrivate8RefCount5derefEv.exit._ZN9QtPrivate8RefCount5derefEv.exit.thread2_crit_edge.i8: ; preds = %_ZN9QtPrivate8RefCount5derefEv.exit.i6
  %.pre.i9 = load ptr, ptr %3, align 8
  br label %_ZN9QtPrivate8RefCount5derefEv.exit.thread2.i5

_ZN9QtPrivate8RefCount5derefEv.exit.thread2.i5:   ; preds = %_ZN9QtPrivate8RefCount5derefEv.exit._ZN9QtPrivate8RefCount5derefEv.exit.thread2_crit_edge.i8, %_ZN7QStringD2Ev.exit
  %21 = phi ptr [ %.pre.i9, %_ZN9QtPrivate8RefCount5derefEv.exit._ZN9QtPrivate8RefCount5derefEv.exit.thread2_crit_edge.i8 ], [ %18, %_ZN7QStringD2Ev.exit ]
  call void @_ZN10QArrayData10deallocateEPS_mm(ptr noundef %21, i64 noundef 2, i64 noundef 8) #14
  br label %_ZN7QStringD2Ev.exit10

_ZN7QStringD2Ev.exit10:                           ; preds = %_ZN7QStringD2Ev.exit, %_ZN9QtPrivate8RefCount5derefEv.exit.i6, %_ZN9QtPrivate8RefCount5derefEv.exit.thread2.i5
  ret void

22:                                               ; preds = %2
  %23 = landingpad { ptr, i32 }
          cleanup
  br label %26

24:                                               ; preds = %12
  %25 = landingpad { ptr, i32 }
          cleanup
  call void @_ZN7QStringD2Ev(ptr noundef nonnull align 8 dereferenceable(8) %4) #14
  br label %26

26:                                               ; preds = %24, %22
  %.pn = phi { ptr, i32 } [ %25, %24 ], [ %23, %22 ]
  call void @_ZN7QStringD2Ev(ptr noundef nonnull align 8 dereferenceable(8) %3) #14
  resume { ptr, i32 } %.pn
}